; Function Attrs: mustprogress uwtable
define void @_ZN9grpc_core8Executor19SetThreadingDefaultEb(i1 noundef zeroext %enable) local_unnamed_addr #3 align 2 personality ptr @__gxx_personality_v0 {
entry:
  %0 = load atomic i8, ptr getelementptr inbounds (%"class.grpc_core::TraceFlag", ptr @_ZN9grpc_core14executor_traceE, i64 0, i32 2, i32 0, i32 0) monotonic, align 8
  %1 = and i8 %0, 1
  %tobool.i.i.i.not = icmp eq i8 %1, 0
  br i1 %tobool.i.i.i.not, label %do.end, label %if.then

if.then:                                          ; preds = %entry
  %conv = zext i1 %enable to i32
  tail call void (ptr, i32, i32, ptr, ...) @gpr_log(ptr noundef nonnull @.str.2, i32 noundef 447, i32 noundef 1, ptr noundef nonnull @.str.27, i32 noundef %conv)
  br label %do.end

do.end:                                           ; preds = %entry, %if.then
  %2 = load ptr, ptr @_ZN9grpc_core12_GLOBAL__N_19executorsE, align 16
  tail call void @_ZN9grpc_core8Executor12SetThreadingEb(ptr noundef nonnull align 8 dereferenceable(40) %2, i1 noundef zeroext %enable)
  ret void
}